target datalayout = "e-m:e-p270:32:32-p271:32:32-p272:64:64-i64:64-i128:128-f80:128-n8:16:32:64-S128"
target triple = "x86_64-pc-linux-gnu"

%class.VisibilityCheck = type { ptr, ptr, ptr, i32, ptr, %"class.std::vector", ptr }
%"class.std::vector" = type { %"struct.std::_Vector_base" }
%"struct.std::_Vector_base" = type { %"struct.std::_Vector_base<unsigned char, std::allocator<unsigned char>>::_Vector_impl" }
%"struct.std::_Vector_base<unsigned char, std::allocator<unsigned char>>::_Vector_impl" = type { %"struct.std::_Vector_base<unsigned char, std::allocator<unsigned char>>::_Vector_impl_data" }
%"struct.std::_Vector_base<unsigned char, std::allocator<unsigned char>>::_Vector_impl_data" = type { ptr, ptr, ptr }

; Function Attrs: mustprogress uwtable
define void @_ZN25VisibilityCheck_ShadowMap9setRasterEP11RasterModel(ptr noundef nonnull align 8 dereferenceable(352) %0, ptr noundef %1) unnamed_addr #1 align 2 {
  %3 = alloca ptr, align 8
  %4 = alloca ptr, align 8
  store ptr %0, ptr %3, align 8
  store ptr %1, ptr %4, align 8
  %5 = load ptr, ptr %3, align 8
  %6 = load ptr, ptr %4, align 8
  %7 = icmp ne ptr %6, null
  br i1 %7, label %8, label %16

8:                                                ; preds = %2
  %9 = load ptr, ptr %4, align 8
  %10 = getelementptr inbounds %class.VisibilityCheck, ptr %5, i32 0, i32 4
  %11 = load ptr, ptr %10, align 8
  %12 = icmp ne ptr %9, %11
  br i1 %12, label %13, label %16

13:                                               ; preds = %8
  %14 = load ptr, ptr %4, align 8
  %15 = getelementptr inbounds %class.VisibilityCheck, ptr %5, i32 0, i32 4
  store ptr %14, ptr %15, align 8
  call void @_ZN25VisibilityCheck_ShadowMap18shadowProjMatricesEv(ptr noundef nonnull align 8 dereferenceable(352) %5)
  call void @_ZN25VisibilityCheck_ShadowMap18setupShadowTextureEv(ptr noundef nonnull align 8 dereferenceable(352) %5)
  br label %16

16:                                               ; preds = %13, %8, %2
  ret void
}