; Function Attrs: mustprogress uwtable
define void @_ZN25VisibilityCheck_ShadowMap9setRasterEP11RasterModel(ptr noundef nonnull align 8 dereferenceable(352) %0, ptr noundef %1) unnamed_addr #1 align 2 {
  %.not = icmp eq ptr %1, null
  br i1 %.not, label %7, label %3

3:                                                ; preds = %2
  %4 = getelementptr inbounds i8, ptr %0, i64 32
  %5 = load ptr, ptr %4, align 8
  %.not4 = icmp eq ptr %5, %1
  br i1 %.not4, label %7, label %6

6:                                                ; preds = %3
  store ptr %1, ptr %4, align 8
  tail call void @_ZN25VisibilityCheck_ShadowMap18shadowProjMatricesEv(ptr noundef nonnull align 8 dereferenceable(352) %0)
  tail call void @_ZN25VisibilityCheck_ShadowMap18setupShadowTextureEv(ptr noundef nonnull align 8 dereferenceable(352) %0)
  br label %7

7:                                                ; preds = %6, %3, %2
  ret void
}